; Function Attrs: mustprogress uwtable
define hidden void @_ZN4cvc58internal6theory7strings16InferenceManager12markInactiveENS0_12NodeTemplateILb1EEENS1_12ExtReducedIdEb(ptr noundef nonnull readonly align 8 captures(none) dereferenceable(432) %0, ptr noundef readonly captures(none) %1, i32 noundef %2, i1 noundef zeroext %3) local_unnamed_addr #3 align 2 personality ptr @__gxx_personality_v0 {
  %5 = alloca %"class.cvc5::internal::NodeTemplate", align 8
  %6 = getelementptr inbounds nuw i8, ptr %0, i64 368
  %7 = load ptr, ptr %6, align 8, !tbaa !419
  %8 = load ptr, ptr %1, align 8, !tbaa !88
  store ptr %8, ptr %5, align 8, !tbaa !88
  %9 = load i64, ptr %8, align 8
  %10 = lshr i64 %9, 40
  %11 = trunc nuw nsw i64 %10 to i32
  %12 = and i32 %11, 1048575
  %13 = icmp samesign ult i32 %12, 1048574
  br i1 %13, label %14, label %19, !prof !90

14:                                               ; preds = %4
  %15 = add i64 %9, 1099511627776
  %16 = and i64 %15, 1152920405095219200
  %17 = and i64 %9, -1152920405095219201
  %18 = or disjoint i64 %16, %17
  store i64 %18, ptr %8, align 8
  br label %_ZN4cvc58internal12NodeTemplateILb1EEC2ERKS2_.exit

19:                                               ; preds = %4
  %20 = icmp eq i32 %12, 1048574
  br i1 %20, label %21, label %_ZN4cvc58internal12NodeTemplateILb1EEC2ERKS2_.exit, !prof !89

21:                                               ; preds = %19
  %22 = or i64 %9, 1152920405095219200
  store i64 %22, ptr %8, align 8
  tail call void @_ZN4cvc58internal4expr9NodeValue20markRefCountMaxedOutEv(ptr noundef nonnull align 8 dereferenceable(24) %8)
  br label %_ZN4cvc58internal12NodeTemplateILb1EEC2ERKS2_.exit

_ZN4cvc58internal12NodeTemplateILb1EEC2ERKS2_.exit: ; preds = %14, %19, %21
  invoke void @_ZN4cvc58internal6theory9ExtTheory12markInactiveENS0_12NodeTemplateILb1EEENS1_12ExtReducedIdEb(ptr noundef nonnull align 8 dereferenceable(584) %7, ptr noundef nonnull %5, i32 noundef %2, i1 noundef zeroext %3)
          to label %23 unwind label %37

23:                                               ; preds = %_ZN4cvc58internal12NodeTemplateILb1EEC2ERKS2_.exit
  %24 = load ptr, ptr %5, align 8, !tbaa !88
  %25 = load i64, ptr %24, align 8
  %26 = and i64 %25, 1152920405095219200
  %.not.i.i = icmp eq i64 %26, 1152920405095219200
  br i1 %.not.i.i, label %_ZN4cvc58internal12NodeTemplateILb1EED2Ev.exit, label %27, !prof !89

27:                                               ; preds = %23
  %28 = add i64 %25, 1152920405095219200
  %29 = and i64 %28, 1152920405095219200
  %30 = and i64 %25, -1152920405095219201
  %31 = or disjoint i64 %29, %30
  store i64 %31, ptr %24, align 8
  %32 = icmp eq i64 %29, 0
  br i1 %32, label %33, label %_ZN4cvc58internal12NodeTemplateILb1EED2Ev.exit, !prof !89

33:                                               ; preds = %27
  invoke void @_ZN4cvc58internal4expr9NodeValue15markForDeletionEv(ptr noundef nonnull align 8 dereferenceable(24) %24)
          to label %_ZN4cvc58internal12NodeTemplateILb1EED2Ev.exit unwind label %34

34:                                               ; preds = %33
  %35 = landingpad { ptr, i32 }
          catch ptr null
  %36 = extractvalue { ptr, i32 } %35, 0
  call void @__clang_call_terminate(ptr %36) #24
  unreachable

_ZN4cvc58internal12NodeTemplateILb1EED2Ev.exit:   ; preds = %23, %27, %33
  ret void

37:                                               ; preds = %_ZN4cvc58internal12NodeTemplateILb1EEC2ERKS2_.exit
  %38 = landingpad { ptr, i32 }
          cleanup
  call void @_ZN4cvc58internal12NodeTemplateILb1EED2Ev(ptr noundef nonnull align 8 dereferenceable(8) %5) #21
  resume { ptr, i32 } %38
}